; Function Attrs: mustprogress uwtable
define hidden void @_ZNK7datalog14sieve_relation7displayERSo(ptr noundef nonnull readonly align 8 captures(none) dereferenceable(72) %0, ptr noundef nonnull align 8 dereferenceable(8) %1) unnamed_addr #3 align 2 {
  %3 = tail call noundef nonnull align 8 dereferenceable(8) ptr @_ZSt16__ostream_insertIcSt11char_traitsIcEERSt13basic_ostreamIT_T0_ES6_PKS3_l(ptr noundef nonnull align 8 dereferenceable(8) %1, ptr noundef nonnull @.str, i64 noundef 15)
  %4 = getelementptr inbounds nuw i8, ptr %0, i64 32
  %5 = load ptr, ptr %4, align 8, !tbaa !29
  %6 = icmp eq ptr %5, null
  br i1 %6, label %_ZNK6vectorIbLb0EjE3endEv.exit.thread.i, label %_ZNK6vectorIbLb0EjE3endEv.exit.i

_ZNK6vectorIbLb0EjE3endEv.exit.thread.i:          ; preds = %2
  %7 = tail call noundef nonnull align 8 dereferenceable(8) ptr @_ZSt16__ostream_insertIcSt11char_traitsIcEERSt13basic_ostreamIT_T0_ES6_PKS3_l(ptr noundef nonnull align 8 dereferenceable(8) %1, ptr noundef nonnull @.str.13, i64 noundef 1)
  br label %_Z15print_containerI7svectorIbjEEvRKT_RSo.exit

_ZNK6vectorIbLb0EjE3endEv.exit.i:                 ; preds = %2
  %8 = getelementptr inbounds i8, ptr %5, i64 -4
  %9 = load i32, ptr %8, align 4, !tbaa !14
  %10 = zext i32 %9 to i64
  %11 = getelementptr inbounds nuw i8, ptr %5, i64 %10
  %12 = tail call noundef nonnull align 8 dereferenceable(8) ptr @_ZSt16__ostream_insertIcSt11char_traitsIcEERSt13basic_ostreamIT_T0_ES6_PKS3_l(ptr noundef nonnull align 8 dereferenceable(8) %1, ptr noundef nonnull @.str.13, i64 noundef 1)
  %.not10.i.i = icmp eq i32 %9, 0
  br i1 %.not10.i.i, label %_Z15print_containerI7svectorIbjEEvRKT_RSo.exit, label %.lr.ph.i.i

.lr.ph.i.i:                                       ; preds = %_ZNK6vectorIbLb0EjE3endEv.exit.i, %15
  %.012.i.i = phi i1 [ false, %15 ], [ true, %_ZNK6vectorIbLb0EjE3endEv.exit.i ]
  %.0911.i.i = phi ptr [ %19, %15 ], [ %5, %_ZNK6vectorIbLb0EjE3endEv.exit.i ]
  br i1 %.012.i.i, label %15, label %13

13:                                               ; preds = %.lr.ph.i.i
  %14 = tail call noundef nonnull align 8 dereferenceable(8) ptr @_ZSt16__ostream_insertIcSt11char_traitsIcEERSt13basic_ostreamIT_T0_ES6_PKS3_l(ptr noundef nonnull align 8 dereferenceable(8) %1, ptr noundef nonnull @.str.14, i64 noundef 1)
  br label %15

15:                                               ; preds = %13, %.lr.ph.i.i
  %16 = load i8, ptr %.0911.i.i, align 1, !tbaa !32, !range !34, !noundef !35
  %17 = trunc nuw i8 %16 to i1
  %18 = tail call noundef nonnull align 8 dereferenceable(8) ptr @_ZNSo9_M_insertIbEERSoT_(ptr noundef nonnull align 8 dereferenceable(8) %1, i1 noundef zeroext %17)
  %19 = getelementptr inbounds nuw i8, ptr %.0911.i.i, i64 1
  %.not.i.i = icmp eq ptr %19, %11
  br i1 %.not.i.i, label %_Z15print_containerI7svectorIbjEEvRKT_RSo.exit, label %.lr.ph.i.i, !llvm.loop !70

_Z15print_containerI7svectorIbjEEvRKT_RSo.exit:   ; preds = %15, %_ZNK6vectorIbLb0EjE3endEv.exit.thread.i, %_ZNK6vectorIbLb0EjE3endEv.exit.i
  %20 = tail call noundef nonnull align 8 dereferenceable(8) ptr @_ZSt16__ostream_insertIcSt11char_traitsIcEERSt13basic_ostreamIT_T0_ES6_PKS3_l(ptr noundef nonnull align 8 dereferenceable(8) %1, ptr noundef nonnull @.str.15, i64 noundef 1)
  %21 = tail call noundef nonnull align 8 dereferenceable(8) ptr @_ZSt16__ostream_insertIcSt11char_traitsIcEERSt13basic_ostreamIT_T0_ES6_PKS3_l(ptr noundef nonnull align 8 dereferenceable(8) %1, ptr noundef nonnull @.str.1, i64 noundef 1)
  %22 = getelementptr inbounds nuw i8, ptr %0, i64 64
  %23 = load ptr, ptr %22, align 8, !tbaa !26
  %24 = load ptr, ptr %23, align 8, !tbaa !3
  %25 = getelementptr inbounds nuw i8, ptr %24, i64 120
  %26 = load ptr, ptr %25, align 8
  tail call void %26(ptr noundef nonnull align 8 dereferenceable(28) %23, ptr noundef nonnull align 8 dereferenceable(8) %1)
  ret void
}